target datalayout = "e-m:e-p270:32:32-p271:32:32-p272:64:64-i64:64-i128:128-f80:128-n8:16:32:64-S128"
target triple = "x86_64-pc-linux-gnu"

%struct.ossl_algorithm_st = type { ptr, ptr, ptr, ptr }

@base_store = internal constant [2 x %struct.ossl_algorithm_st] [%struct.ossl_algorithm_st { ptr @.str.82, ptr @.str.83, ptr @ossl_file_store_functions, ptr null }, %struct.ossl_algorithm_st zeroinitializer], align 16
@base_rands = internal constant [2 x %struct.ossl_algorithm_st] [%struct.ossl_algorithm_st { ptr @.str.84, ptr @.str.85, ptr @ossl_seed_src_functions, ptr null }, %struct.ossl_algorithm_st zeroinitializer], align 16

; Function Attrs: nounwind uwtable
define internal ptr @base_query(ptr noundef %0, i32 noundef %1, ptr noundef %2) #0 {
  %4 = alloca ptr, align 8
  %5 = alloca ptr, align 8
  %6 = alloca i32, align 4
  %7 = alloca ptr, align 8
  store ptr %0, ptr %5, align 8, !tbaa !12
  store i32 %1, ptr %6, align 4, !tbaa !23
  store ptr %2, ptr %7, align 8, !tbaa !24
  %8 = load ptr, ptr %7, align 8, !tbaa !24
  store i32 0, ptr %8, align 4, !tbaa !23
  %9 = load i32, ptr %6, align 4, !tbaa !23
  switch i32 %9, label %14 [
    i32 20, label %10
    i32 21, label %11
    i32 22, label %12
    i32 5, label %13
  ]

10:                                               ; preds = %3
  store ptr @base_encoder, ptr %4, align 8
  br label %15

11:                                               ; preds = %3
  store ptr @base_decoder, ptr %4, align 8
  br label %15

12:                                               ; preds = %3
  store ptr @base_store, ptr %4, align 8
  br label %15

13:                                               ; preds = %3
  store ptr @base_rands, ptr %4, align 8
  br label %15

14:                                               ; preds = %3
  store ptr null, ptr %4, align 8
  br label %15

15:                                               ; preds = %14, %13, %12, %11, %10
  %16 = load ptr, ptr %4, align 8
  ret ptr %16
}